target datalayout = "e-m:e-p270:32:32-p271:32:32-p272:64:64-i64:64-i128:128-f80:128-n8:16:32:64-S128"
target triple = "x86_64-pc-linux-gnu"

%struct.Wla_Man_t_ = type { ptr, ptr, ptr, ptr, ptr, ptr, ptr, ptr, ptr, ptr, i32, i32, i32, i32, i32, i32, i64, i64, i64 }
%struct.Wlc_Par_t_ = type { i32, i32, i32, i32, i32, i32, i32, i32, i32, i32, i32, i32, i32, i32, i32, i32, i32, i32, i32, i32, i32, i32, i32, ptr }
%struct.Ssw_Pars_t_ = type { i32, i32, i32, i32, i32, i32, i32, i32, i32, i32, i32, i32, i32, i32, i32, i32, i32, i32, i32, i32, i32, i32, i32, i32, i32, i32, i32, i32, i32, i32, i32, i32, i32, i32, i32, i32, i32, i32, i32, i32, i32, i32, ptr, ptr }
%struct.Pdr_Par_t_ = type { i32, i32, i32, i32, i32, i32, i32, i32, i32, i32, i32, i32, i32, i32, i32, i32, i32, i32, i32, i32, i32, i32, i32, i32, i32, i32, i32, i32, i32, i32, i32, i32, i32, i32, i32, i32, i32, i32, ptr, ptr, i64, ptr, ptr }
%struct.Aig_Man_t_ = type { ptr, ptr, ptr, ptr, ptr, ptr, ptr, %struct.Aig_Obj_t_, i32, i32, i32, i32, i32, i32, [7 x i32], i32, ptr, i32, ptr, i32, ptr, i32, i32, i32, ptr, i32, i32, i32, i32, i32, ptr, ptr, i32, ptr, ptr, i32, ptr, ptr, i32, i32, i32, ptr, ptr, ptr, ptr, ptr, ptr, ptr, ptr, ptr, ptr, ptr, ptr, ptr, ptr, i32, ptr, ptr, ptr, ptr, i32, i64, i64, i64, ptr, ptr }
%struct.Aig_Obj_t_ = type { %union.anon.0, ptr, ptr, i64, i32, i32, %union.anon.1 }
%union.anon.0 = type { ptr }
%union.anon.1 = type { ptr }
%struct.timespec = type { i64, i64 }

@.str.8 = private unnamed_addr constant [25 x i8] c"SCORR proved UNSAT. Time\00", align 1
@.str.9 = private unnamed_addr constant [28 x i8] c"SCORR failed with %d ANDs. \00", align 1
@.str.10 = private unnamed_addr constant [5 x i8] c"Time\00", align 1
@.str.23 = private unnamed_addr constant [5 x i8] c"%s =\00", align 1
@.str.46 = private unnamed_addr constant [11 x i8] c"%9.2f sec\0A\00", align 1

; Function Attrs: inlinehint nounwind uwtable
define internal void @Abc_PrintTime(i32 noundef %0, ptr noundef %1, i64 noundef %2) #2 {
  %4 = alloca i32, align 4
  %5 = alloca ptr, align 8
  %6 = alloca i64, align 8
  store i32 %0, ptr %4, align 4, !tbaa !15
  store ptr %1, ptr %5, align 8, !tbaa !23
  store i64 %2, ptr %6, align 8, !tbaa !89
  %7 = load ptr, ptr %5, align 8, !tbaa !23
  call void (i32, ptr, ...) @Abc_Print(i32 noundef 1, ptr noundef @.str.23, ptr noundef %7)
  %8 = load i64, ptr %6, align 8, !tbaa !89
  %9 = sitofp i64 %8 to double
  %10 = fmul double 1.000000e+00, %9
  %11 = fdiv double %10, 1.000000e+06
  call void (i32, ptr, ...) @Abc_Print(i32 noundef 1, ptr noundef @.str.46, double noundef %11)
  ret void
}

; Function Attrs: inlinehint nounwind uwtable
define internal i64 @Abc_Clock() #2 {
  %1 = alloca i64, align 8
  %2 = alloca %struct.timespec, align 8
  %3 = alloca i32, align 4
  %4 = alloca i64, align 8
  call void @llvm.lifetime.start.p0(i64 16, ptr %2) #13
  %5 = call i32 @clock_gettime(i32 noundef 1, ptr noundef %2) #13
  %6 = icmp slt i32 %5, 0
  br i1 %6, label %7, label %8

7:                                                ; preds = %0
  store i64 -1, ptr %1, align 8
  store i32 1, ptr %3, align 4
  br label %19

8:                                                ; preds = %0
  call void @llvm.lifetime.start.p0(i64 8, ptr %4) #13
  %9 = getelementptr inbounds nuw %struct.timespec, ptr %2, i32 0, i32 0
  %10 = load i64, ptr %9, align 8, !tbaa !289
  %11 = mul nsw i64 %10, 1000000
  store i64 %11, ptr %4, align 8, !tbaa !89
  %12 = getelementptr inbounds nuw %struct.timespec, ptr %2, i32 0, i32 1
  %13 = load i64, ptr %12, align 8, !tbaa !291
  %14 = mul nsw i64 %13, 1000000
  %15 = sdiv i64 %14, 1000000000
  %16 = load i64, ptr %4, align 8, !tbaa !89
  %17 = add nsw i64 %16, %15
  store i64 %17, ptr %4, align 8, !tbaa !89
  %18 = load i64, ptr %4, align 8, !tbaa !89
  store i64 %18, ptr %1, align 8
  store i32 1, ptr %3, align 4
  call void @llvm.lifetime.end.p0(i64 8, ptr %4) #13
  br label %19

19:                                               ; preds = %8, %7
  call void @llvm.lifetime.end.p0(i64 16, ptr %2) #13
  %20 = load i64, ptr %1, align 8
  ret i64 %20
}

; Function Attrs: inlinehint nounwind uwtable
define internal i32 @Aig_ManAndNum(ptr noundef %0) #2 {
  %2 = alloca ptr, align 8
  store ptr %0, ptr %2, align 8, !tbaa !113
  %3 = load ptr, ptr %2, align 8, !tbaa !113
  %4 = getelementptr inbounds nuw %struct.Aig_Man_t_, ptr %3, i32 0, i32 14
  %5 = getelementptr inbounds [7 x i32], ptr %4, i64 0, i64 5
  %6 = load i32, ptr %5, align 4, !tbaa !15
  ret i32 %6
}

; Function Attrs: nounwind uwtable
define i32 @Wla_ManCheckCombUnsat(ptr noundef %0, ptr noundef %1) #0 {
  %3 = alloca i32, align 4
  %4 = alloca ptr, align 8
  %5 = alloca ptr, align 8
  %6 = alloca ptr, align 8
  %7 = alloca ptr, align 8
  %8 = alloca i64, align 8
  %9 = alloca i32, align 4
  %10 = alloca ptr, align 8
  %11 = alloca %struct.Ssw_Pars_t_, align 8
  %12 = alloca ptr, align 8
  %13 = alloca i32, align 4
  %14 = alloca i32, align 4
  store ptr %0, ptr %4, align 8, !tbaa !74
  store ptr %1, ptr %5, align 8, !tbaa !113
  call void @llvm.lifetime.start.p0(i64 8, ptr %6) #13
  call void @llvm.lifetime.start.p0(i64 8, ptr %7) #13
  %15 = load ptr, ptr %4, align 8, !tbaa !74
  %16 = getelementptr inbounds nuw %struct.Wla_Man_t_, ptr %15, i32 0, i32 8
  %17 = load ptr, ptr %16, align 8, !tbaa !115
  store ptr %17, ptr %7, align 8, !tbaa !116
  call void @llvm.lifetime.start.p0(i64 8, ptr %8) #13
  call void @llvm.lifetime.start.p0(i64 4, ptr %9) #13
  store i32 -1, ptr %9, align 4, !tbaa !15
  %18 = load ptr, ptr %5, align 8, !tbaa !113
  %19 = call i32 @Aig_ManAndNum(ptr noundef %18)
  %20 = icmp sle i32 %19, 20000
  br i1 %20, label %21, label %65

21:                                               ; preds = %2
  call void @llvm.lifetime.start.p0(i64 8, ptr %10) #13
  call void @llvm.lifetime.start.p0(i64 184, ptr %11) #13
  call void @llvm.lifetime.start.p0(i64 8, ptr %12) #13
  store ptr %11, ptr %12, align 8, !tbaa !118
  call void @llvm.lifetime.start.p0(i64 4, ptr %13) #13
  %22 = call i64 @Abc_Clock()
  store i64 %22, ptr %8, align 8, !tbaa !89
  %23 = load ptr, ptr %12, align 8, !tbaa !118
  call void @Ssw_ManSetDefaultParams(ptr noundef %23)
  %24 = load ptr, ptr %12, align 8, !tbaa !118
  %25 = getelementptr inbounds nuw %struct.Ssw_Pars_t_, ptr %24, i32 0, i32 32
  store i32 1, ptr %25, align 8, !tbaa !120
  %26 = load ptr, ptr %12, align 8, !tbaa !118
  %27 = getelementptr inbounds nuw %struct.Ssw_Pars_t_, ptr %26, i32 0, i32 3
  store i32 1, ptr %27, align 4, !tbaa !122
  %28 = load ptr, ptr %5, align 8, !tbaa !113
  %29 = load ptr, ptr %12, align 8, !tbaa !118
  %30 = call ptr @Ssw_SignalCorrespondence(ptr noundef %28, ptr noundef %29)
  store ptr %30, ptr %10, align 8, !tbaa !113
  %31 = load ptr, ptr %10, align 8, !tbaa !113
  %32 = call i32 @Aig_ManAndNum(ptr noundef %31)
  store i32 %32, ptr %13, align 4, !tbaa !15
  %33 = load ptr, ptr %10, align 8, !tbaa !113
  call void @Aig_ManStop(ptr noundef %33)
  %34 = load i32, ptr %13, align 4, !tbaa !15
  %35 = icmp eq i32 %34, 0
  br i1 %35, label %36, label %48

36:                                               ; preds = %21
  %37 = load ptr, ptr %4, align 8, !tbaa !74
  %38 = getelementptr inbounds nuw %struct.Wla_Man_t_, ptr %37, i32 0, i32 1
  %39 = load ptr, ptr %38, align 8, !tbaa !86
  %40 = getelementptr inbounds nuw %struct.Wlc_Par_t_, ptr %39, i32 0, i32 20
  %41 = load i32, ptr %40, align 8, !tbaa !101
  %42 = icmp ne i32 %41, 0
  br i1 %42, label %43, label %47

43:                                               ; preds = %36
  %44 = call i64 @Abc_Clock()
  %45 = load i64, ptr %8, align 8, !tbaa !89
  %46 = sub nsw i64 %44, %45
  call void @Abc_PrintTime(i32 noundef 1, ptr noundef @.str.8, i64 noundef %46)
  br label %47

47:                                               ; preds = %43, %36
  store i32 1, ptr %3, align 4
  store i32 1, ptr %14, align 4
  br label %62

48:                                               ; preds = %21
  %49 = load ptr, ptr %4, align 8, !tbaa !74
  %50 = getelementptr inbounds nuw %struct.Wla_Man_t_, ptr %49, i32 0, i32 1
  %51 = load ptr, ptr %50, align 8, !tbaa !86
  %52 = getelementptr inbounds nuw %struct.Wlc_Par_t_, ptr %51, i32 0, i32 20
  %53 = load i32, ptr %52, align 8, !tbaa !101
  %54 = icmp ne i32 %53, 0
  br i1 %54, label %55, label %60

55:                                               ; preds = %48
  %56 = load i32, ptr %13, align 4, !tbaa !15
  call void (i32, ptr, ...) @Abc_Print(i32 noundef 1, ptr noundef @.str.9, i32 noundef %56)
  %57 = call i64 @Abc_Clock()
  %58 = load i64, ptr %8, align 8, !tbaa !89
  %59 = sub nsw i64 %57, %58
  call void @Abc_PrintTime(i32 noundef 1, ptr noundef @.str.10, i64 noundef %59)
  br label %60

60:                                               ; preds = %55, %48
  br label %61

61:                                               ; preds = %60
  store i32 0, ptr %14, align 4
  br label %62

62:                                               ; preds = %61, %47
  call void @llvm.lifetime.end.p0(i64 4, ptr %13) #13
  call void @llvm.lifetime.end.p0(i64 8, ptr %12) #13
  call void @llvm.lifetime.end.p0(i64 184, ptr %11) #13
  call void @llvm.lifetime.end.p0(i64 8, ptr %10) #13
  %63 = load i32, ptr %14, align 4
  switch i32 %63, label %90 [
    i32 0, label %64
  ]

64:                                               ; preds = %62
  br label %65

65:                                               ; preds = %64, %2
  %66 = call i64 @Abc_Clock()
  store i64 %66, ptr %8, align 8, !tbaa !89
  %67 = load ptr, ptr %7, align 8, !tbaa !116
  %68 = getelementptr inbounds nuw %struct.Pdr_Par_t_, ptr %67, i32 0, i32 25
  store i32 0, ptr %68, align 4, !tbaa !123
  %69 = load ptr, ptr %5, align 8, !tbaa !113
  %70 = load ptr, ptr %7, align 8, !tbaa !116
  %71 = call ptr @Pdr_ManStart(ptr noundef %69, ptr noundef %70, ptr noundef null)
  store ptr %71, ptr %6, align 8, !tbaa !125
  %72 = load ptr, ptr %6, align 8, !tbaa !125
  %73 = call i32 @IPdr_ManCheckCombUnsat(ptr noundef %72)
  store i32 %73, ptr %9, align 4, !tbaa !15
  %74 = load ptr, ptr %6, align 8, !tbaa !125
  call void @Pdr_ManStop(ptr noundef %74)
  %75 = load ptr, ptr %4, align 8, !tbaa !74
  %76 = getelementptr inbounds nuw %struct.Wla_Man_t_, ptr %75, i32 0, i32 1
  %77 = load ptr, ptr %76, align 8, !tbaa !86
  %78 = getelementptr inbounds nuw %struct.Wlc_Par_t_, ptr %77, i32 0, i32 21
  %79 = load i32, ptr %78, align 4, !tbaa !127
  %80 = load ptr, ptr %7, align 8, !tbaa !116
  %81 = getelementptr inbounds nuw %struct.Pdr_Par_t_, ptr %80, i32 0, i32 25
  store i32 %79, ptr %81, align 4, !tbaa !123
  %82 = call i64 @Abc_Clock()
  %83 = load i64, ptr %8, align 8, !tbaa !89
  %84 = sub nsw i64 %82, %83
  %85 = load ptr, ptr %4, align 8, !tbaa !74
  %86 = getelementptr inbounds nuw %struct.Wla_Man_t_, ptr %85, i32 0, i32 16
  %87 = load i64, ptr %86, align 8, !tbaa !128
  %88 = add nsw i64 %87, %84
  store i64 %88, ptr %86, align 8, !tbaa !128
  %89 = load i32, ptr %9, align 4, !tbaa !15
  store i32 %89, ptr %3, align 4
  store i32 1, ptr %14, align 4
  br label %90

90:                                               ; preds = %65, %62
  call void @llvm.lifetime.end.p0(i64 4, ptr %9) #13
  call void @llvm.lifetime.end.p0(i64 8, ptr %8) #13
  call void @llvm.lifetime.end.p0(i64 8, ptr %7) #13
  call void @llvm.lifetime.end.p0(i64 8, ptr %6) #13
  %91 = load i32, ptr %3, align 4
  ret i32 %91
}