; Function Attrs: nounwind uwtable
define i32 @Wla_ManCheckCombUnsat(ptr noundef captures(none) %0, ptr noundef %1) local_unnamed_addr #1 {
  %3 = alloca %struct.timespec, align 8
  %4 = alloca %struct.timespec, align 8
  %5 = alloca %struct.timespec, align 8
  %6 = alloca %struct.timespec, align 8
  %7 = alloca %struct.timespec, align 8
  %8 = alloca %struct.Ssw_Pars_t_, align 8
  %9 = getelementptr inbounds nuw i8, ptr %0, i64 64
  %10 = load ptr, ptr %9, align 8, !tbaa !132
  %11 = getelementptr i8, ptr %1, i64 148
  %.val = load i32, ptr %11, align 4, !tbaa !15
  %12 = icmp slt i32 %.val, 20001
  br i1 %12, label %13, label %60

13:                                               ; preds = %2
  call void @llvm.lifetime.start.p0(i64 184, ptr nonnull %8) #24
  call void @llvm.lifetime.start.p0(i64 16, ptr nonnull %7) #24
  %14 = call i32 @clock_gettime(i32 noundef 1, ptr noundef nonnull %7) #24
  %15 = icmp slt i32 %14, 0
  br i1 %15, label %Abc_Clock.exit, label %16

16:                                               ; preds = %13
  %17 = load i64, ptr %7, align 8, !tbaa !79
  %18 = mul nsw i64 %17, 1000000
  %19 = getelementptr inbounds nuw i8, ptr %7, i64 8
  %20 = load i64, ptr %19, align 8, !tbaa !81
  %21 = sdiv i64 %20, 1000
  %22 = add nsw i64 %21, %18
  br label %Abc_Clock.exit

Abc_Clock.exit:                                   ; preds = %13, %16
  %.0.i = phi i64 [ %22, %16 ], [ -1, %13 ]
  call void @llvm.lifetime.end.p0(i64 16, ptr nonnull %7) #24
  call void @Ssw_ManSetDefaultParams(ptr noundef nonnull %8) #24
  %23 = getelementptr inbounds nuw i8, ptr %8, i64 128
  store i32 1, ptr %23, align 8, !tbaa !133
  %24 = getelementptr inbounds nuw i8, ptr %8, i64 12
  store i32 1, ptr %24, align 4, !tbaa !135
  %25 = call ptr @Ssw_SignalCorrespondence(ptr noundef nonnull %1, ptr noundef nonnull %8) #24
  %26 = getelementptr i8, ptr %25, i64 148
  %.val30 = load i32, ptr %26, align 4, !tbaa !15
  call void @Aig_ManStop(ptr noundef %25) #24
  %.not29 = icmp eq i32 %.val30, 0
  %27 = getelementptr inbounds nuw i8, ptr %0, i64 8
  %28 = load ptr, ptr %27, align 8, !tbaa !112
  %29 = getelementptr inbounds nuw i8, ptr %28, i64 80
  %30 = load i32, ptr %29, align 8, !tbaa !121
  %.not28 = icmp eq i32 %30, 0
  br i1 %.not29, label %31, label %45

31:                                               ; preds = %Abc_Clock.exit
  br i1 %.not28, label %.thread, label %32

32:                                               ; preds = %31
  call void @llvm.lifetime.start.p0(i64 16, ptr nonnull %6) #24
  %33 = call i32 @clock_gettime(i32 noundef 1, ptr noundef nonnull %6) #24
  %34 = icmp slt i32 %33, 0
  br i1 %34, label %Abc_Clock.exit32, label %35

35:                                               ; preds = %32
  %36 = load i64, ptr %6, align 8, !tbaa !79
  %37 = mul nsw i64 %36, 1000000
  %38 = getelementptr inbounds nuw i8, ptr %6, i64 8
  %39 = load i64, ptr %38, align 8, !tbaa !81
  %40 = sdiv i64 %39, 1000
  %41 = add nsw i64 %40, %37
  br label %Abc_Clock.exit32

Abc_Clock.exit32:                                 ; preds = %32, %35
  %.0.i31 = phi i64 [ %41, %35 ], [ -1, %32 ]
  call void @llvm.lifetime.end.p0(i64 16, ptr nonnull %6) #24
  %42 = sub nsw i64 %.0.i31, %.0.i
  call void (i32, ptr, ...) @Abc_Print(i32 poison, ptr noundef nonnull @.str.23, ptr noundef nonnull @.str.8)
  %43 = sitofp i64 %42 to double
  %44 = fdiv double %43, 1.000000e+06
  call void (i32, ptr, ...) @Abc_Print(i32 poison, ptr noundef nonnull @.str.46, double noundef %44)
  br label %.thread

45:                                               ; preds = %Abc_Clock.exit
  br i1 %.not28, label %59, label %46

46:                                               ; preds = %45
  call void (i32, ptr, ...) @Abc_Print(i32 poison, ptr noundef nonnull @.str.9, i32 noundef %.val30)
  call void @llvm.lifetime.start.p0(i64 16, ptr nonnull %5) #24
  %47 = call i32 @clock_gettime(i32 noundef 1, ptr noundef nonnull %5) #24
  %48 = icmp slt i32 %47, 0
  br i1 %48, label %Abc_Clock.exit34, label %49

49:                                               ; preds = %46
  %50 = load i64, ptr %5, align 8, !tbaa !79
  %51 = mul nsw i64 %50, 1000000
  %52 = getelementptr inbounds nuw i8, ptr %5, i64 8
  %53 = load i64, ptr %52, align 8, !tbaa !81
  %54 = sdiv i64 %53, 1000
  %55 = add nsw i64 %54, %51
  br label %Abc_Clock.exit34

Abc_Clock.exit34:                                 ; preds = %46, %49
  %.0.i33 = phi i64 [ %55, %49 ], [ -1, %46 ]
  call void @llvm.lifetime.end.p0(i64 16, ptr nonnull %5) #24
  %56 = sub nsw i64 %.0.i33, %.0.i
  call void (i32, ptr, ...) @Abc_Print(i32 poison, ptr noundef nonnull @.str.23, ptr noundef nonnull @.str.10)
  %57 = sitofp i64 %56 to double
  %58 = fdiv double %57, 1.000000e+06
  call void (i32, ptr, ...) @Abc_Print(i32 poison, ptr noundef nonnull @.str.46, double noundef %58)
  br label %59

.thread:                                          ; preds = %31, %Abc_Clock.exit32
  call void @llvm.lifetime.end.p0(i64 184, ptr nonnull %8) #24
  br label %87

59:                                               ; preds = %Abc_Clock.exit34, %45
  call void @llvm.lifetime.end.p0(i64 184, ptr nonnull %8) #24
  br label %60

60:                                               ; preds = %59, %2
  call void @llvm.lifetime.start.p0(i64 16, ptr nonnull %4) #24
  %61 = call i32 @clock_gettime(i32 noundef 1, ptr noundef nonnull %4) #24
  %62 = icmp slt i32 %61, 0
  br i1 %62, label %Abc_Clock.exit36, label %63

63:                                               ; preds = %60
  %64 = load i64, ptr %4, align 8, !tbaa !79
  %.neg39 = mul i64 %64, -1000000
  %65 = getelementptr inbounds nuw i8, ptr %4, i64 8
  %66 = load i64, ptr %65, align 8, !tbaa !81
  %.neg = sdiv i64 %66, -1000
  %.neg40 = add i64 %.neg, %.neg39
  br label %Abc_Clock.exit36

Abc_Clock.exit36:                                 ; preds = %60, %63
  %.0.i35.neg = phi i64 [ %.neg40, %63 ], [ 1, %60 ]
  call void @llvm.lifetime.end.p0(i64 16, ptr nonnull %4) #24
  %67 = getelementptr inbounds nuw i8, ptr %10, i64 100
  store i32 0, ptr %67, align 4, !tbaa !136
  %68 = call ptr @Pdr_ManStart(ptr noundef nonnull %1, ptr noundef %10, ptr noundef null) #24
  %69 = call i32 @IPdr_ManCheckCombUnsat(ptr noundef %68) #24
  call void @Pdr_ManStop(ptr noundef %68) #24
  %70 = getelementptr inbounds nuw i8, ptr %0, i64 8
  %71 = load ptr, ptr %70, align 8, !tbaa !112
  %72 = getelementptr inbounds nuw i8, ptr %71, i64 84
  %73 = load i32, ptr %72, align 4, !tbaa !138
  store i32 %73, ptr %67, align 4, !tbaa !136
  call void @llvm.lifetime.start.p0(i64 16, ptr nonnull %3) #24
  %74 = call i32 @clock_gettime(i32 noundef 1, ptr noundef nonnull %3) #24
  %75 = icmp slt i32 %74, 0
  br i1 %75, label %Abc_Clock.exit38, label %76

76:                                               ; preds = %Abc_Clock.exit36
  %77 = load i64, ptr %3, align 8, !tbaa !79
  %78 = mul nsw i64 %77, 1000000
  %79 = getelementptr inbounds nuw i8, ptr %3, i64 8
  %80 = load i64, ptr %79, align 8, !tbaa !81
  %81 = sdiv i64 %80, 1000
  %82 = add nsw i64 %81, %78
  br label %Abc_Clock.exit38

Abc_Clock.exit38:                                 ; preds = %Abc_Clock.exit36, %76
  %.0.i37 = phi i64 [ %82, %76 ], [ -1, %Abc_Clock.exit36 ]
  call void @llvm.lifetime.end.p0(i64 16, ptr nonnull %3) #24
  %83 = add i64 %.0.i37, %.0.i35.neg
  %84 = getelementptr inbounds nuw i8, ptr %0, i64 104
  %85 = load i64, ptr %84, align 8, !tbaa !139
  %86 = add nsw i64 %83, %85
  store i64 %86, ptr %84, align 8, !tbaa !139
  br label %87

87:                                               ; preds = %.thread, %Abc_Clock.exit38
  %.1 = phi i32 [ %69, %Abc_Clock.exit38 ], [ 1, %.thread ]
  ret i32 %.1
}